Certificate:
    Data:
        Version: 3 (0x2)
        Serial Number: 4817 (0x12d1)
        Signature Algorithm: sha256WithRSAEncryption
        Issuer: C=DE, ST=Bayern, L=N\xC3\x83\xC2\xBCrnberg, O=Siemens AG, OU=Trustcenter, CN=OliverCA/emailAddress=oliver.stiller@siemens.com
        Validity
            Not Before: Jan 27 09:07:16 2021 GMT
            Not After : Jan 27 09:07:16 2022 GMT
        Subject: O=testtesttest002, CN=testtesttest002
        Subject Public Key Info:
            Public Key Algorithm: rsaEncryption
                RSA Public-Key: (2048 bit)
                Modulus:
                    00:bc:d1:04:37:62:02:40:ff:02:4e:2b:ef:cc:19:
                    f4:14:59:c5:c4:78:b4:80:7d:2c:e0:c9:8a:69:dd:
                    e5:fc:ff:e5:9a:53:e8:a9:d8:0b:98:9b:56:6e:e6:
                    5b:21:c2:32:25:49:20:c3:66:0d:aa:a1:54:d7:e1:
                    8d:13:3b:fa:0d:6d:77:19:3c:bf:85:65:59:14:6f:
                    2e:66:50:1a:3e:0b:51:7e:ef:e2:d4:3a:35:09:ca:
                    32:1f:4c:73:8c:6b:df:7d:f8:1e:c7:28:bf:f0:13:
                    c9:b4:35:e5:b7:00:55:e5:89:85:97:6b:a1:54:81:
                    fa:fc:5b:b6:62:32:44:49:c8:df:2c:aa:d4:bf:d2:
                    d5:f7:f4:a0:51:53:e0:dc:8a:cb:02:41:c7:0f:0d:
                    5c:3a:88:75:fd:77:b8:25:e4:86:44:a1:e7:3a:0d:
                    f3:c8:ef:98:cb:b1:1c:a1:d6:7c:4f:8d:9b:ca:85:
                    f0:ff:b0:5d:c0:68:b5:57:1b:31:f6:50:73:cb:ec:
                    42:36:0b:31:d0:22:cf:45:fd:d2:fc:16:88:d5:39:
                    fc:36:3c:1d:c8:71:16:44:fc:0f:c9:93:32:57:e5:
                    20:c7:5e:fb:18:02:6d:48:67:fc:23:c5:ad:df:3c:
                    c6:f3:f2:2a:54:4c:51:19:f3:9e:b4:7f:21:35:42:
                    01:8b
                Exponent: 65537 (0x10001)
        X509v3 extensions:
            X509v3 Extended Key Usage: 
                Any Extended Key Usage, TLS Web Server Authentication
            X509v3 Key Usage: 
                Digital Signature, Key Encipherment
            X509v3 CRL Distribution Points: 

                Full Name:
                  URI:ldap://ds.example.com:389/dc=example,dc=com?givenName,sn,cn?sub?(uid=john.doe)

                Full Name:
                  URI:http://crl.test.de/cert/linuxtestca_crl.crl

    Signature Algorithm: sha256WithRSAEncryption
         d4:58:d0:cf:de:30:a9:01:55:c7:5e:7b:6b:3c:5a:a8:86:7d:
         46:b4:ba:61:a7:74:b3:ef:b4:db:35:00:a3:63:93:59:0c:b1:
         12:0b:64:42:79:1c:2e:ad:1c:4b:10:91:92:62:6c:be:62:50:
         f3:dd:b0:50:3e:f6:3b:38:66:11:71:e3:d4:da:f8:a2:47:70:
         fc:71:20:31:f6:bd:eb:5b:11:df:f0:e5:71:a3:ea:32:50:31:
         97:b6:ea:fa:37:10:db:55:c3:51:ea:b5:4d:b3:c6:fa:ef:bf:
         3f:3a:00:86:eb:f1:48:5f:e0:1b:b5:42:3b:6f:98:b8:e4:67:
         f8:fd:f8:91:f3:72:54:e9:d2:68:d7:86:d8:dc:90:33:b0:d8:
         ef:c1:37:c2:13:54:46:79:2c:27:3a:11:57:aa:0d:9a:05:8c:
         95:9b:79:9f:61:5f:84:5f:2a:3c:1d:02:97:18:42:3c:02:c4:
         57:81:b9:65:0b:43:e5:ea:2e:33:f8:5c:2c:91:c5:e6:f5:60:
         ad:90:27:cc:48:f5:13:c4:e1:af:18:73:5f:c9:0a:4e:70:02:
         1f:0f:d5:29:3a:bf:9b:81:c5:fe:ad:91:d8:df:f6:a1:c8:87:
         2a:8e:ad:19:fb:9f:ba:66:b5:b8:e4:73:34:98:73:e4:43:a7:
         09:1e:21:32:d9:8d:d4:73:1c:ec:fe:76:81:14:33:f9:a7:ba:
         97:33:f6:59:7e:b0:b4:56:17:f5:1f:34:7c:62:c2:54:ab:0a:
         a9:b0:5a:ff:da:e7:66:4f:07:be:72:65:61:7d:a6:75:a9:af:
         bd:2f:bb:86:4a:f6:7e:1c:ad:06:b2:be:f7:8b:e1:b1:68:f7:
         22:73:63:9e:5b:e3:28:79:59:7a:bc:1b:bc:e9:74:32:52:d0:
         2b:08:87:de:d2:63:d3:c4:2f:64:34:76:1a:a7:24:6d:a8:43:
         ed:5e:e3:02:2c:36:6a:22:23:02:26:59:43:74:26:69:14:96:
         7c:5c:6f:79:c9:a9:51:07:d7:e8:a1:46:d1:2e:1e:ee:b0:b7:
         80:09:c0:2f:86:17:22:e8:8a:43:aa:6b:d7:9d:bf:07:22:ba:
         14:d4:ad:e5:f5:d1:dc:12:a0:e4:61:a9:91:10:6d:a9:ed:06:
         aa:a7:e0:3a:64:df:19:d7:06:fa:1c:fb:9b:e0:61:8e:1c:8c:
         cc:10:5c:4f:2e:53:81:c0:54:12:7e:40:44:31:21:d9:2f:fb:
         7d:13:bd:12:6a:d4:be:95:a2:f1:0b:f3:e8:4f:75:88:d2:d1:
         b8:57:3c:7f:23:0b:9f:d4:97:e6:8f:12:a6:0d:30:bd:85:a9:
         70:07:7e:74:9a:87:06:24
-----BEGIN CERTIFICATE-----
MIIFETCCAvmgAwIBAgICEtEwDQYJKoZIhvcNAQELBQAwgZ0xCzAJBgNVBAYTAkRF
MQ8wDQYDVQQIDAZCYXllcm4xFDASBgNVBAcMC07Dg8K8cm5iZXJnMRMwEQYDVQQK
DApTaWVtZW5zIEFHMRQwEgYDVQQLDAtUcnVzdGNlbnRlcjERMA8GA1UEAwwIT2xp
dmVyQ0ExKTAnBgkqhkiG9w0BCQEWGm9saXZlci5zdGlsbGVyQHNpZW1lbnMuY29t
MB4XDTIxMDEyNzA5MDcxNloXDTIyMDEyNzA5MDcxNlowNDEYMBYGA1UECgwPdGVz
dHRlc3R0ZXN0MDAyMRgwFgYDVQQDDA90ZXN0dGVzdHRlc3QwMDIwggEiMA0GCSqG
SIb3DQEBAQUAA4IBDwAwggEKAoIBAQC80QQ3YgJA/wJOK+/MGfQUWcXEeLSAfSzg
yYpp3eX8/+WaU+ip2AuYm1Zu5lshwjIlSSDDZg2qoVTX4Y0TO/oNbXcZPL+FZVkU
by5mUBo+C1F+7+LUOjUJyjIfTHOMa999+B7HKL/wE8m0NeW3AFXliYWXa6FUgfr8
W7ZiMkRJyN8sqtS/0tX39KBRU+DcissCQccPDVw6iHX9d7gl5IZEoec6DfPI75jL
sRyh1nxPjZvKhfD/sF3AaLVXGzH2UHPL7EI2CzHQIs9F/dL8FojVOfw2PB3IcRZE
/A/JkzJX5SDHXvsYAm1IZ/wjxa3fPMbz8ipUTFEZ8560fyE1QgGLAgMBAAGjgcIw
gb8wGQYDVR0lBBIwEAYEVR0lAAYIKwYBBQUHAwEwCwYDVR0PBAQDAgWgMIGUBgNV
HR8EgYwwgYkwVKBSoFCGTmxkYXA6Ly9kcy5leGFtcGxlLmNvbTozODkvZGM9ZXhh
bXBsZSxkYz1jb20/Z2l2ZW5OYW1lLHNuLGNuP3N1Yj8odWlkPWpvaG4uZG9lKTAx
oC+gLYYraHR0cDovL2NybC50ZXN0LmRlL2NlcnQvbGludXh0ZXN0Y2FfY3JsLmNy
bDANBgkqhkiG9w0BAQsFAAOCAgEA1FjQz94wqQFVx157azxaqIZ9RrS6Yad0s++0
2zUAo2OTWQyxEgtkQnkcLq0cSxCRkmJsvmJQ892wUD72OzhmEXHj1Nr4okdw/HEg
Mfa961sR3/DlcaPqMlAxl7bq+jcQ21XDUeq1TbPG+u+/PzoAhuvxSF/gG7VCO2+Y
uORn+P34kfNyVOnSaNeG2NyQM7DY78E3whNURnksJzoRV6oNmgWMlZt5n2FfhF8q
PB0ClxhCPALEV4G5ZQtD5eouM/hcLJHF5vVgrZAnzEj1E8ThrxhzX8kKTnACHw/V
KTq/m4HF/q2R2N/2ociHKo6tGfufuma1uORzNJhz5EOnCR4hMtmN1HMc7P52gRQz
+ae6lzP2WX6wtFYX9R80fGLCVKsKqbBa/9rnZk8HvnJlYX2mdamvvS+7hkr2fhyt
BrK+94vhsWj3InNjnlvjKHlZerwbvOl0MlLQKwiH3tJj08QvZDR2GqckbahD7V7j
Aiw2aiIjAiZZQ3QmaRSWfFxvecmpUQfX6KFG0S4e7rC3gAnAL4YXIuiKQ6pr152/
ByK6FNSt5fXR3BKg5GGpkRBtqe0GqqfgOmTfGdcG+hz7m+BhjhyMzBBcTy5TgcBU
En5ARDEh2S/7fRO9EmrUvpWi8Qvz6E91iNLRuFc8fyMLn9SX5o8Spg0wvYWpcAd+
dJqHBiQ=
-----END CERTIFICATE-----
